target datalayout = "e-m:e-p270:32:32-p271:32:32-p272:64:64-i64:64-i128:128-f80:128-n8:16:32:64-S128"
target triple = "x86_64-pc-linux-gnu"

%struct.code = type { i8, i8, i16 }
%struct.z_stream_s = type { ptr, i32, i64, ptr, i32, i64, ptr, ptr, ptr, ptr, ptr, i32, i64, i64 }
%struct.inflate_state = type { ptr, i32, i32, i32, i32, i32, i32, i64, i64, ptr, i32, i32, i32, i32, ptr, i64, i32, i32, i32, i32, ptr, ptr, i32, i32, i32, i32, i32, i32, ptr, [320 x i16], [288 x i16], [1444 x %struct.code], i32, i32, i32 }

@.str = private unnamed_addr constant [7 x i8] c"1.2.13\00", align 1

; Function Attrs: nounwind uwtable
define internal i32 @inflateStateCheck(ptr noundef %0) #0 {
  %2 = alloca i32, align 4
  %3 = alloca ptr, align 8
  %4 = alloca ptr, align 8
  store ptr %0, ptr %3, align 8
  %5 = load ptr, ptr %3, align 8
  %6 = icmp eq ptr %5, null
  br i1 %6, label %17, label %7

7:                                                ; preds = %1
  %8 = load ptr, ptr %3, align 8
  %9 = getelementptr inbounds %struct.z_stream_s, ptr %8, i32 0, i32 8
  %10 = load ptr, ptr %9, align 8
  %11 = icmp eq ptr %10, null
  br i1 %11, label %17, label %12

12:                                               ; preds = %7
  %13 = load ptr, ptr %3, align 8
  %14 = getelementptr inbounds %struct.z_stream_s, ptr %13, i32 0, i32 9
  %15 = load ptr, ptr %14, align 8
  %16 = icmp eq ptr %15, null
  br i1 %16, label %17, label %18

17:                                               ; preds = %12, %7, %1
  store i32 1, ptr %2, align 4
  br label %42

18:                                               ; preds = %12
  %19 = load ptr, ptr %3, align 8
  %20 = getelementptr inbounds %struct.z_stream_s, ptr %19, i32 0, i32 7
  %21 = load ptr, ptr %20, align 8
  store ptr %21, ptr %4, align 8
  %22 = load ptr, ptr %4, align 8
  %23 = icmp eq ptr %22, null
  br i1 %23, label %40, label %24

24:                                               ; preds = %18
  %25 = load ptr, ptr %4, align 8
  %26 = getelementptr inbounds %struct.inflate_state, ptr %25, i32 0, i32 0
  %27 = load ptr, ptr %26, align 8
  %28 = load ptr, ptr %3, align 8
  %29 = icmp ne ptr %27, %28
  br i1 %29, label %40, label %30

30:                                               ; preds = %24
  %31 = load ptr, ptr %4, align 8
  %32 = getelementptr inbounds %struct.inflate_state, ptr %31, i32 0, i32 1
  %33 = load i32, ptr %32, align 8
  %34 = icmp ult i32 %33, 16180
  br i1 %34, label %40, label %35

35:                                               ; preds = %30
  %36 = load ptr, ptr %4, align 8
  %37 = getelementptr inbounds %struct.inflate_state, ptr %36, i32 0, i32 1
  %38 = load i32, ptr %37, align 8
  %39 = icmp ugt i32 %38, 16211
  br i1 %39, label %40, label %41

40:                                               ; preds = %35, %30, %24, %18
  store i32 1, ptr %2, align 4
  br label %42

41:                                               ; preds = %35
  store i32 0, ptr %2, align 4
  br label %42

42:                                               ; preds = %41, %40, %17
  %43 = load i32, ptr %2, align 4
  ret i32 %43
}

; Function Attrs: nounwind uwtable
define dso_local i32 @cm_zlib_inflateReset2(ptr noundef %0, i32 noundef %1) #0 {
  %3 = alloca i32, align 4
  %4 = alloca ptr, align 8
  %5 = alloca i32, align 4
  %6 = alloca i32, align 4
  %7 = alloca ptr, align 8
  store ptr %0, ptr %4, align 8
  store i32 %1, ptr %5, align 4
  %8 = load ptr, ptr %4, align 8
  %9 = call i32 @inflateStateCheck(ptr noundef %8)
  %10 = icmp ne i32 %9, 0
  br i1 %10, label %11, label %12

11:                                               ; preds = %2
  store i32 -2, ptr %3, align 4
  br label %77

12:                                               ; preds = %2
  %13 = load ptr, ptr %4, align 8
  %14 = getelementptr inbounds %struct.z_stream_s, ptr %13, i32 0, i32 7
  %15 = load ptr, ptr %14, align 8
  store ptr %15, ptr %7, align 8
  %16 = load i32, ptr %5, align 4
  %17 = icmp slt i32 %16, 0
  br i1 %17, label %18, label %25

18:                                               ; preds = %12
  %19 = load i32, ptr %5, align 4
  %20 = icmp slt i32 %19, -15
  br i1 %20, label %21, label %22

21:                                               ; preds = %18
  store i32 -2, ptr %3, align 4
  br label %77

22:                                               ; preds = %18
  store i32 0, ptr %6, align 4
  %23 = load i32, ptr %5, align 4
  %24 = sub nsw i32 0, %23
  store i32 %24, ptr %5, align 4
  br label %35

25:                                               ; preds = %12
  %26 = load i32, ptr %5, align 4
  %27 = ashr i32 %26, 4
  %28 = add nsw i32 %27, 5
  store i32 %28, ptr %6, align 4
  %29 = load i32, ptr %5, align 4
  %30 = icmp slt i32 %29, 48
  br i1 %30, label %31, label %34

31:                                               ; preds = %25
  %32 = load i32, ptr %5, align 4
  %33 = and i32 %32, 15
  store i32 %33, ptr %5, align 4
  br label %34

34:                                               ; preds = %31, %25
  br label %35

35:                                               ; preds = %34, %22
  %36 = load i32, ptr %5, align 4
  %37 = icmp ne i32 %36, 0
  br i1 %37, label %38, label %45

38:                                               ; preds = %35
  %39 = load i32, ptr %5, align 4
  %40 = icmp slt i32 %39, 8
  br i1 %40, label %44, label %41

41:                                               ; preds = %38
  %42 = load i32, ptr %5, align 4
  %43 = icmp sgt i32 %42, 15
  br i1 %43, label %44, label %45

44:                                               ; preds = %41, %38
  store i32 -2, ptr %3, align 4
  br label %77

45:                                               ; preds = %41, %35
  %46 = load ptr, ptr %7, align 8
  %47 = getelementptr inbounds %struct.inflate_state, ptr %46, i32 0, i32 14
  %48 = load ptr, ptr %47, align 8
  %49 = icmp ne ptr %48, null
  br i1 %49, label %50, label %68

50:                                               ; preds = %45
  %51 = load ptr, ptr %7, align 8
  %52 = getelementptr inbounds %struct.inflate_state, ptr %51, i32 0, i32 10
  %53 = load i32, ptr %52, align 8
  %54 = load i32, ptr %5, align 4
  %55 = icmp ne i32 %53, %54
  br i1 %55, label %56, label %68

56:                                               ; preds = %50
  %57 = load ptr, ptr %4, align 8
  %58 = getelementptr inbounds %struct.z_stream_s, ptr %57, i32 0, i32 9
  %59 = load ptr, ptr %58, align 8
  %60 = load ptr, ptr %4, align 8
  %61 = getelementptr inbounds %struct.z_stream_s, ptr %60, i32 0, i32 10
  %62 = load ptr, ptr %61, align 8
  %63 = load ptr, ptr %7, align 8
  %64 = getelementptr inbounds %struct.inflate_state, ptr %63, i32 0, i32 14
  %65 = load ptr, ptr %64, align 8
  call void %59(ptr noundef %62, ptr noundef %65)
  %66 = load ptr, ptr %7, align 8
  %67 = getelementptr inbounds %struct.inflate_state, ptr %66, i32 0, i32 14
  store ptr null, ptr %67, align 8
  br label %68

68:                                               ; preds = %56, %50, %45
  %69 = load i32, ptr %6, align 4
  %70 = load ptr, ptr %7, align 8
  %71 = getelementptr inbounds %struct.inflate_state, ptr %70, i32 0, i32 3
  store i32 %69, ptr %71, align 8
  %72 = load i32, ptr %5, align 4
  %73 = load ptr, ptr %7, align 8
  %74 = getelementptr inbounds %struct.inflate_state, ptr %73, i32 0, i32 10
  store i32 %72, ptr %74, align 8
  %75 = load ptr, ptr %4, align 8
  %76 = call i32 @cm_zlib_inflateReset(ptr noundef %75)
  store i32 %76, ptr %3, align 4
  br label %77

77:                                               ; preds = %68, %44, %21, %11
  %78 = load i32, ptr %3, align 4
  ret i32 %78
}

; Function Attrs: nounwind uwtable
define dso_local i32 @cm_zlib_inflateInit2_(ptr noundef %0, i32 noundef %1, ptr noundef %2, i32 noundef %3) #0 {
  %5 = alloca i32, align 4
  %6 = alloca ptr, align 8
  %7 = alloca i32, align 4
  %8 = alloca ptr, align 8
  %9 = alloca i32, align 4
  %10 = alloca i32, align 4
  %11 = alloca ptr, align 8
  store ptr %0, ptr %6, align 8
  store i32 %1, ptr %7, align 4
  store ptr %2, ptr %8, align 8
  store i32 %3, ptr %9, align 4
  %12 = load ptr, ptr %8, align 8
  %13 = icmp eq ptr %12, null
  br i1 %13, label %25, label %14

14:                                               ; preds = %4
  %15 = load ptr, ptr %8, align 8
  %16 = getelementptr inbounds i8, ptr %15, i64 0
  %17 = load i8, ptr %16, align 1
  %18 = sext i8 %17 to i32
  %19 = load i8, ptr @.str, align 1
  %20 = sext i8 %19 to i32
  %21 = icmp ne i32 %18, %20
  br i1 %21, label %25, label %22

22:                                               ; preds = %14
  %23 = load i32, ptr %9, align 4
  %24 = icmp ne i32 %23, 112
  br i1 %24, label %25, label %26

25:                                               ; preds = %22, %14, %4
  store i32 -6, ptr %5, align 4
  br label %89

26:                                               ; preds = %22
  %27 = load ptr, ptr %6, align 8
  %28 = icmp eq ptr %27, null
  br i1 %28, label %29, label %30

29:                                               ; preds = %26
  store i32 -2, ptr %5, align 4
  br label %89

30:                                               ; preds = %26
  %31 = load ptr, ptr %6, align 8
  %32 = getelementptr inbounds %struct.z_stream_s, ptr %31, i32 0, i32 6
  store ptr null, ptr %32, align 8
  %33 = load ptr, ptr %6, align 8
  %34 = getelementptr inbounds %struct.z_stream_s, ptr %33, i32 0, i32 8
  %35 = load ptr, ptr %34, align 8
  %36 = icmp eq ptr %35, null
  br i1 %36, label %37, label %42

37:                                               ; preds = %30
  %38 = load ptr, ptr %6, align 8
  %39 = getelementptr inbounds %struct.z_stream_s, ptr %38, i32 0, i32 8
  store ptr @cm_zlib_zcalloc, ptr %39, align 8
  %40 = load ptr, ptr %6, align 8
  %41 = getelementptr inbounds %struct.z_stream_s, ptr %40, i32 0, i32 10
  store ptr null, ptr %41, align 8
  br label %42

42:                                               ; preds = %37, %30
  %43 = load ptr, ptr %6, align 8
  %44 = getelementptr inbounds %struct.z_stream_s, ptr %43, i32 0, i32 9
  %45 = load ptr, ptr %44, align 8
  %46 = icmp eq ptr %45, null
  br i1 %46, label %47, label %50

47:                                               ; preds = %42
  %48 = load ptr, ptr %6, align 8
  %49 = getelementptr inbounds %struct.z_stream_s, ptr %48, i32 0, i32 9
  store ptr @cm_zlib_zcfree, ptr %49, align 8
  br label %50

50:                                               ; preds = %47, %42
  %51 = load ptr, ptr %6, align 8
  %52 = getelementptr inbounds %struct.z_stream_s, ptr %51, i32 0, i32 8
  %53 = load ptr, ptr %52, align 8
  %54 = load ptr, ptr %6, align 8
  %55 = getelementptr inbounds %struct.z_stream_s, ptr %54, i32 0, i32 10
  %56 = load ptr, ptr %55, align 8
  %57 = call ptr %53(ptr noundef %56, i32 noundef 1, i32 noundef 7160)
  store ptr %57, ptr %11, align 8
  %58 = load ptr, ptr %11, align 8
  %59 = icmp eq ptr %58, null
  br i1 %59, label %60, label %61

60:                                               ; preds = %50
  store i32 -4, ptr %5, align 4
  br label %89

61:                                               ; preds = %50
  %62 = load ptr, ptr %11, align 8
  %63 = load ptr, ptr %6, align 8
  %64 = getelementptr inbounds %struct.z_stream_s, ptr %63, i32 0, i32 7
  store ptr %62, ptr %64, align 8
  %65 = load ptr, ptr %6, align 8
  %66 = load ptr, ptr %11, align 8
  %67 = getelementptr inbounds %struct.inflate_state, ptr %66, i32 0, i32 0
  store ptr %65, ptr %67, align 8
  %68 = load ptr, ptr %11, align 8
  %69 = getelementptr inbounds %struct.inflate_state, ptr %68, i32 0, i32 14
  store ptr null, ptr %69, align 8
  %70 = load ptr, ptr %11, align 8
  %71 = getelementptr inbounds %struct.inflate_state, ptr %70, i32 0, i32 1
  store i32 16180, ptr %71, align 8
  %72 = load ptr, ptr %6, align 8
  %73 = load i32, ptr %7, align 4
  %74 = call i32 @cm_zlib_inflateReset2(ptr noundef %72, i32 noundef %73)
  store i32 %74, ptr %10, align 4
  %75 = load i32, ptr %10, align 4
  %76 = icmp ne i32 %75, 0
  br i1 %76, label %77, label %87

77:                                               ; preds = %61
  %78 = load ptr, ptr %6, align 8
  %79 = getelementptr inbounds %struct.z_stream_s, ptr %78, i32 0, i32 9
  %80 = load ptr, ptr %79, align 8
  %81 = load ptr, ptr %6, align 8
  %82 = getelementptr inbounds %struct.z_stream_s, ptr %81, i32 0, i32 10
  %83 = load ptr, ptr %82, align 8
  %84 = load ptr, ptr %11, align 8
  call void %80(ptr noundef %83, ptr noundef %84)
  %85 = load ptr, ptr %6, align 8
  %86 = getelementptr inbounds %struct.z_stream_s, ptr %85, i32 0, i32 7
  store ptr null, ptr %86, align 8
  br label %87

87:                                               ; preds = %77, %61
  %88 = load i32, ptr %10, align 4
  store i32 %88, ptr %5, align 4
  br label %89

89:                                               ; preds = %87, %60, %29, %25
  %90 = load i32, ptr %5, align 4
  ret i32 %90
}