; Function Attrs: nounwind uwtable
define dso_local range(i32 -6, 1) i32 @cm_zlib_inflateInit2_(ptr noundef %0, i32 noundef %1, ptr noundef readonly %2, i32 noundef %3) local_unnamed_addr #1 {
  %5 = icmp eq ptr %2, null
  br i1 %5, label %69, label %6

6:                                                ; preds = %4
  %7 = load i8, ptr %2, align 1
  %8 = icmp ne i8 %7, 49
  %9 = icmp ne i32 %3, 112
  %or.cond = or i1 %9, %8
  br i1 %or.cond, label %69, label %10

10:                                               ; preds = %6
  %11 = icmp eq ptr %0, null
  br i1 %11, label %69, label %12

12:                                               ; preds = %10
  %13 = getelementptr inbounds nuw i8, ptr %0, i64 48
  store ptr null, ptr %13, align 8
  %14 = getelementptr inbounds nuw i8, ptr %0, i64 64
  %15 = load ptr, ptr %14, align 8
  %16 = icmp eq ptr %15, null
  br i1 %16, label %17, label %19

17:                                               ; preds = %12
  store ptr @cm_zlib_zcalloc, ptr %14, align 8
  %18 = getelementptr inbounds nuw i8, ptr %0, i64 80
  store ptr null, ptr %18, align 8
  br label %19

19:                                               ; preds = %17, %12
  %20 = phi ptr [ @cm_zlib_zcalloc, %17 ], [ %15, %12 ]
  %21 = getelementptr inbounds nuw i8, ptr %0, i64 72
  %22 = load ptr, ptr %21, align 8
  %23 = icmp eq ptr %22, null
  br i1 %23, label %24, label %25

24:                                               ; preds = %19
  store ptr @cm_zlib_zcfree, ptr %21, align 8
  br label %25

25:                                               ; preds = %24, %19
  %26 = getelementptr inbounds nuw i8, ptr %0, i64 80
  %27 = load ptr, ptr %26, align 8
  %28 = tail call ptr %20(ptr noundef %27, i32 noundef 1, i32 noundef 7160) #9
  %29 = icmp eq ptr %28, null
  br i1 %29, label %69, label %30

30:                                               ; preds = %25
  %31 = getelementptr inbounds nuw i8, ptr %0, i64 56
  store ptr %28, ptr %31, align 8
  store ptr %0, ptr %28, align 8
  %32 = getelementptr inbounds nuw i8, ptr %28, i64 72
  store ptr null, ptr %32, align 8
  %33 = getelementptr inbounds nuw i8, ptr %28, i64 8
  store i32 16180, ptr %33, align 8
  %34 = load ptr, ptr %14, align 8
  %35 = icmp eq ptr %34, null
  %.pre34 = load ptr, ptr %21, align 8
  br i1 %35, label %cm_zlib_inflateReset2.exit.thread, label %36

36:                                               ; preds = %30
  %37 = icmp ne ptr %.pre34, null
  tail call void @llvm.assume(i1 %37)
  %38 = load ptr, ptr %31, align 8
  %39 = icmp eq ptr %38, null
  br i1 %39, label %cm_zlib_inflateReset2.exit.thread, label %40

40:                                               ; preds = %36
  %41 = load ptr, ptr %38, align 8
  %.not.i.i = icmp eq ptr %41, %0
  br i1 %.not.i.i, label %inflateStateCheck.exit.i, label %cm_zlib_inflateReset2.exit.thread

inflateStateCheck.exit.i:                         ; preds = %40
  %42 = getelementptr inbounds nuw i8, ptr %38, i64 8
  %43 = load i32, ptr %42, align 8
  %44 = add i32 %43, -16180
  %or.cond.i.i = icmp ult i32 %44, 32
  br i1 %or.cond.i.i, label %45, label %cm_zlib_inflateReset2.exit.thread

45:                                               ; preds = %inflateStateCheck.exit.i
  %46 = icmp slt i32 %1, 0
  br i1 %46, label %47, label %51

47:                                               ; preds = %45
  %48 = icmp samesign ult i32 %1, -15
  br i1 %48, label %cm_zlib_inflateReset2.exit.thread, label %49

49:                                               ; preds = %47
  %50 = sub nsw i32 0, %1
  br label %select.unfold.i

51:                                               ; preds = %45
  %52 = lshr i32 %1, 4
  %53 = add nuw nsw i32 %52, 5
  %54 = icmp samesign ult i32 %1, 48
  %55 = and i32 %1, 15
  %spec.select = select i1 %54, i32 %55, i32 %1
  br label %select.unfold.i

select.unfold.i:                                  ; preds = %51, %49
  %.025.i = phi i32 [ %50, %49 ], [ %spec.select, %51 ]
  %.024.i = phi i32 [ 0, %49 ], [ %53, %51 ]
  switch i32 %.025.i, label %cm_zlib_inflateReset2.exit.thread [
    i32 15, label %56
    i32 14, label %56
    i32 13, label %56
    i32 12, label %56
    i32 11, label %56
    i32 10, label %56
    i32 9, label %56
    i32 8, label %56
    i32 0, label %56
  ]

56:                                               ; preds = %select.unfold.i, %select.unfold.i, %select.unfold.i, %select.unfold.i, %select.unfold.i, %select.unfold.i, %select.unfold.i, %select.unfold.i, %select.unfold.i
  %57 = getelementptr inbounds nuw i8, ptr %38, i64 72
  %58 = load ptr, ptr %57, align 8
  %.not29.i = icmp eq ptr %58, null
  br i1 %.not29.i, label %cm_zlib_inflateReset2.exit, label %59

59:                                               ; preds = %56
  %60 = getelementptr inbounds nuw i8, ptr %38, i64 56
  %61 = load i32, ptr %60, align 8
  %.not30.i = icmp eq i32 %61, %.025.i
  br i1 %.not30.i, label %cm_zlib_inflateReset2.exit, label %62

62:                                               ; preds = %59
  %63 = load ptr, ptr %26, align 8
  tail call void %.pre34(ptr noundef %63, ptr noundef nonnull %58) #9
  store ptr null, ptr %57, align 8
  br label %cm_zlib_inflateReset2.exit

cm_zlib_inflateReset2.exit:                       ; preds = %56, %59, %62
  %64 = getelementptr inbounds nuw i8, ptr %38, i64 16
  store i32 %.024.i, ptr %64, align 8
  %65 = getelementptr inbounds nuw i8, ptr %38, i64 56
  store i32 %.025.i, ptr %65, align 8
  %66 = tail call i32 @cm_zlib_inflateReset(ptr noundef nonnull %0)
  %.not = icmp eq i32 %66, 0
  br i1 %.not, label %69, label %cm_zlib_inflateReset2.exit.cm_zlib_inflateReset2.exit.thread_crit_edge

cm_zlib_inflateReset2.exit.cm_zlib_inflateReset2.exit.thread_crit_edge: ; preds = %cm_zlib_inflateReset2.exit
  %.pre = load ptr, ptr %21, align 8
  br label %cm_zlib_inflateReset2.exit.thread

cm_zlib_inflateReset2.exit.thread:                ; preds = %cm_zlib_inflateReset2.exit.cm_zlib_inflateReset2.exit.thread_crit_edge, %36, %40, %30, %select.unfold.i, %47, %inflateStateCheck.exit.i
  %67 = phi ptr [ %.pre, %cm_zlib_inflateReset2.exit.cm_zlib_inflateReset2.exit.thread_crit_edge ], [ %.pre34, %inflateStateCheck.exit.i ], [ %.pre34, %47 ], [ %.pre34, %select.unfold.i ], [ %.pre34, %30 ], [ %.pre34, %40 ], [ %.pre34, %36 ]
  %.0.i33 = phi i32 [ %66, %cm_zlib_inflateReset2.exit.cm_zlib_inflateReset2.exit.thread_crit_edge ], [ -2, %inflateStateCheck.exit.i ], [ -2, %47 ], [ -2, %select.unfold.i ], [ -2, %30 ], [ -2, %40 ], [ -2, %36 ]
  %68 = load ptr, ptr %26, align 8
  tail call void %67(ptr noundef %68, ptr noundef nonnull %28) #9
  store ptr null, ptr %31, align 8
  br label %69

69:                                               ; preds = %cm_zlib_inflateReset2.exit, %cm_zlib_inflateReset2.exit.thread, %25, %10, %4, %6
  %.0 = phi i32 [ -6, %6 ], [ -6, %4 ], [ -2, %10 ], [ -4, %25 ], [ %.0.i33, %cm_zlib_inflateReset2.exit.thread ], [ 0, %cm_zlib_inflateReset2.exit ]
  ret i32 %.0
}